target datalayout = "e-m:e-p270:32:32-p271:32:32-p272:64:64-i64:64-i128:128-f80:128-n8:16:32:64-S128"
target triple = "x86_64-pc-linux-gnu"

%struct.DdNode = type { i32, i32, ptr, %union.anon, i64 }
%union.anon = type { %struct.DdChildren }
%struct.DdChildren = type { ptr, ptr }
%struct.DdManager = type { %struct.DdNode, ptr, ptr, ptr, ptr, ptr, ptr, ptr, i32, i32, double, double, double, i32, i32, i32, i32, i32, i32, ptr, ptr, %struct.DdSubtable, i32, i32, i32, i32, i32, i32, i32, double, i32, i32, i32, ptr, i64, double, i32, ptr, ptr, ptr, ptr, ptr, ptr, ptr, i32, ptr, ptr, ptr, ptr, ptr, ptr, i32, i32, i32, double, i32, i32, i32, i32, double, double, i32, i32, i32, i32, i32, i32, i32, i32, i32, ptr, ptr, i32, i32, i32, i32, i32, i32, ptr, ptr, ptr, ptr, ptr, ptr, ptr, ptr, i32, i64, i64, i64, i32, i64, i64, double, double, double, double, double, double, i32, ptr, ptr, i64 }
%struct.DdSubtable = type { ptr, i32, i32, i32, i32, i32, i32, i32, i32, i32, i32, i32 }

; Function Attrs: nounwind uwtable
define void @Cudd_DelayedDerefBdd(ptr noundef %0, ptr noundef %1) #0 {
  %3 = alloca ptr, align 8
  %4 = alloca ptr, align 8
  %5 = alloca ptr, align 8
  %6 = alloca i32, align 4
  %7 = alloca ptr, align 8
  %8 = alloca i32, align 4
  %9 = alloca i32, align 4
  %10 = alloca i32, align 4
  store ptr %0, ptr %3, align 8, !tbaa !12
  store ptr %1, ptr %4, align 8, !tbaa !3
  call void @llvm.lifetime.start.p0(i64 8, ptr %5) #4
  call void @llvm.lifetime.start.p0(i64 4, ptr %6) #4
  call void @llvm.lifetime.start.p0(i64 8, ptr %7) #4
  call void @llvm.lifetime.start.p0(i64 4, ptr %8) #4
  call void @llvm.lifetime.start.p0(i64 4, ptr %9) #4
  %11 = load ptr, ptr %3, align 8, !tbaa !12
  %12 = getelementptr inbounds nuw %struct.DdManager, ptr %11, i32 0, i32 23
  %13 = load i32, ptr %12, align 4, !tbaa !30
  %14 = load ptr, ptr %3, align 8, !tbaa !12
  %15 = getelementptr inbounds nuw %struct.DdManager, ptr %14, i32 0, i32 25
  %16 = load i32, ptr %15, align 4, !tbaa !31
  %17 = sub i32 %13, %16
  store i32 %17, ptr %9, align 4, !tbaa !29
  %18 = load i32, ptr %9, align 4, !tbaa !29
  %19 = load ptr, ptr %3, align 8, !tbaa !12
  %20 = getelementptr inbounds nuw %struct.DdManager, ptr %19, i32 0, i32 99
  %21 = load i32, ptr %20, align 8, !tbaa !32
  %22 = icmp ugt i32 %18, %21
  br i1 %22, label %23, label %27

23:                                               ; preds = %2
  %24 = load i32, ptr %9, align 4, !tbaa !29
  %25 = load ptr, ptr %3, align 8, !tbaa !12
  %26 = getelementptr inbounds nuw %struct.DdManager, ptr %25, i32 0, i32 99
  store i32 %24, ptr %26, align 8, !tbaa !32
  br label %27

27:                                               ; preds = %23, %2
  %28 = load ptr, ptr %4, align 8, !tbaa !3
  %29 = ptrtoint ptr %28 to i64
  %30 = and i64 %29, -2
  %31 = inttoptr i64 %30 to ptr
  store ptr %31, ptr %4, align 8, !tbaa !3
  %32 = load ptr, ptr %4, align 8, !tbaa !3
  %33 = getelementptr inbounds nuw %struct.DdNode, ptr %32, i32 0, i32 0
  %34 = load i32, ptr %33, align 8, !tbaa !33
  %35 = icmp eq i32 %34, 2147483647
  br i1 %35, label %41, label %36

36:                                               ; preds = %27
  %37 = load ptr, ptr %4, align 8, !tbaa !3
  %38 = getelementptr inbounds nuw %struct.DdNode, ptr %37, i32 0, i32 1
  %39 = load i32, ptr %38, align 4, !tbaa !8
  %40 = icmp ugt i32 %39, 1
  br i1 %40, label %41, label %46

41:                                               ; preds = %36, %27
  %42 = load ptr, ptr %4, align 8, !tbaa !3
  %43 = getelementptr inbounds nuw %struct.DdNode, ptr %42, i32 0, i32 1
  %44 = load i32, ptr %43, align 4, !tbaa !8
  %45 = add i32 %44, -1
  store i32 %45, ptr %43, align 4, !tbaa !8
  store i32 1, ptr %10, align 4
  br label %145

46:                                               ; preds = %36
  %47 = load ptr, ptr %3, align 8, !tbaa !12
  %48 = getelementptr inbounds nuw %struct.DdManager, ptr %47, i32 0, i32 50
  %49 = load ptr, ptr %48, align 8, !tbaa !42
  %50 = load ptr, ptr %3, align 8, !tbaa !12
  %51 = getelementptr inbounds nuw %struct.DdManager, ptr %50, i32 0, i32 52
  %52 = load i32, ptr %51, align 4, !tbaa !43
  %53 = sext i32 %52 to i64
  %54 = getelementptr inbounds ptr, ptr %49, i64 %53
  %55 = load ptr, ptr %54, align 8, !tbaa !3
  store ptr %55, ptr %5, align 8, !tbaa !3
  %56 = load ptr, ptr %5, align 8, !tbaa !3
  %57 = icmp ne ptr %56, null
  br i1 %57, label %58, label %124

58:                                               ; preds = %46
  %59 = load ptr, ptr %3, align 8, !tbaa !12
  %60 = getelementptr inbounds nuw %struct.DdManager, ptr %59, i32 0, i32 33
  %61 = load ptr, ptr %60, align 8, !tbaa !14
  store ptr %61, ptr %7, align 8, !tbaa !28
  store i32 1, ptr %8, align 4, !tbaa !29
  br label %62

62:                                               ; preds = %120, %58
  %63 = load ptr, ptr %5, align 8, !tbaa !3
  %64 = getelementptr inbounds nuw %struct.DdNode, ptr %63, i32 0, i32 1
  %65 = load i32, ptr %64, align 4, !tbaa !8
  %66 = icmp eq i32 %65, 1
  br i1 %66, label %67, label %108

67:                                               ; preds = %62
  %68 = load ptr, ptr %5, align 8, !tbaa !3
  %69 = getelementptr inbounds nuw %struct.DdNode, ptr %68, i32 0, i32 1
  store i32 0, ptr %69, align 4, !tbaa !8
  %70 = load ptr, ptr %3, align 8, !tbaa !12
  %71 = getelementptr inbounds nuw %struct.DdManager, ptr %70, i32 0, i32 25
  %72 = load i32, ptr %71, align 4, !tbaa !31
  %73 = add i32 %72, 1
  store i32 %73, ptr %71, align 4, !tbaa !31
  %74 = load ptr, ptr %3, align 8, !tbaa !12
  %75 = getelementptr inbounds nuw %struct.DdManager, ptr %74, i32 0, i32 37
  %76 = load ptr, ptr %75, align 8, !tbaa !35
  %77 = load ptr, ptr %5, align 8, !tbaa !3
  %78 = getelementptr inbounds nuw %struct.DdNode, ptr %77, i32 0, i32 0
  %79 = load i32, ptr %78, align 8, !tbaa !33
  %80 = zext i32 %79 to i64
  %81 = getelementptr inbounds nuw i32, ptr %76, i64 %80
  %82 = load i32, ptr %81, align 4, !tbaa !29
  store i32 %82, ptr %6, align 4, !tbaa !29
  %83 = load ptr, ptr %5, align 8, !tbaa !3
  %84 = getelementptr inbounds nuw %struct.DdNode, ptr %83, i32 0, i32 3
  %85 = getelementptr inbounds nuw %struct.DdChildren, ptr %84, i32 0, i32 1
  %86 = load ptr, ptr %85, align 8, !tbaa !36
  %87 = ptrtoint ptr %86 to i64
  %88 = and i64 %87, -2
  %89 = inttoptr i64 %88 to ptr
  %90 = load ptr, ptr %7, align 8, !tbaa !28
  %91 = load i32, ptr %8, align 4, !tbaa !29
  %92 = add nsw i32 %91, 1
  store i32 %92, ptr %8, align 4, !tbaa !29
  %93 = sext i32 %91 to i64
  %94 = getelementptr inbounds ptr, ptr %90, i64 %93
  store ptr %89, ptr %94, align 8, !tbaa !3
  %95 = load ptr, ptr %3, align 8, !tbaa !12
  %96 = getelementptr inbounds nuw %struct.DdManager, ptr %95, i32 0, i32 19
  %97 = load ptr, ptr %96, align 8, !tbaa !37
  %98 = load i32, ptr %6, align 4, !tbaa !29
  %99 = sext i32 %98 to i64
  %100 = getelementptr inbounds %struct.DdSubtable, ptr %97, i64 %99
  %101 = getelementptr inbounds nuw %struct.DdSubtable, ptr %100, i32 0, i32 5
  %102 = load i32, ptr %101, align 8, !tbaa !38
  %103 = add i32 %102, 1
  store i32 %103, ptr %101, align 8, !tbaa !38
  %104 = load ptr, ptr %5, align 8, !tbaa !3
  %105 = getelementptr inbounds nuw %struct.DdNode, ptr %104, i32 0, i32 3
  %106 = getelementptr inbounds nuw %struct.DdChildren, ptr %105, i32 0, i32 0
  %107 = load ptr, ptr %106, align 8, !tbaa !36
  store ptr %107, ptr %5, align 8, !tbaa !3
  br label %119

108:                                              ; preds = %62
  %109 = load ptr, ptr %5, align 8, !tbaa !3
  %110 = getelementptr inbounds nuw %struct.DdNode, ptr %109, i32 0, i32 1
  %111 = load i32, ptr %110, align 4, !tbaa !8
  %112 = add i32 %111, -1
  store i32 %112, ptr %110, align 4, !tbaa !8
  %113 = load ptr, ptr %7, align 8, !tbaa !28
  %114 = load i32, ptr %8, align 4, !tbaa !29
  %115 = add nsw i32 %114, -1
  store i32 %115, ptr %8, align 4, !tbaa !29
  %116 = sext i32 %115 to i64
  %117 = getelementptr inbounds ptr, ptr %113, i64 %116
  %118 = load ptr, ptr %117, align 8, !tbaa !3
  store ptr %118, ptr %5, align 8, !tbaa !3
  br label %119

119:                                              ; preds = %108, %67
  br label %120

120:                                              ; preds = %119
  %121 = load i32, ptr %8, align 4, !tbaa !29
  %122 = icmp ne i32 %121, 0
  br i1 %122, label %62, label %123, !llvm.loop !44

123:                                              ; preds = %120
  br label %124

124:                                              ; preds = %123, %46
  %125 = load ptr, ptr %4, align 8, !tbaa !3
  %126 = load ptr, ptr %3, align 8, !tbaa !12
  %127 = getelementptr inbounds nuw %struct.DdManager, ptr %126, i32 0, i32 50
  %128 = load ptr, ptr %127, align 8, !tbaa !42
  %129 = load ptr, ptr %3, align 8, !tbaa !12
  %130 = getelementptr inbounds nuw %struct.DdManager, ptr %129, i32 0, i32 52
  %131 = load i32, ptr %130, align 4, !tbaa !43
  %132 = sext i32 %131 to i64
  %133 = getelementptr inbounds ptr, ptr %128, i64 %132
  store ptr %125, ptr %133, align 8, !tbaa !3
  %134 = load ptr, ptr %3, align 8, !tbaa !12
  %135 = getelementptr inbounds nuw %struct.DdManager, ptr %134, i32 0, i32 52
  %136 = load i32, ptr %135, align 4, !tbaa !43
  %137 = add nsw i32 %136, 1
  store i32 %137, ptr %135, align 4, !tbaa !43
  %138 = load ptr, ptr %3, align 8, !tbaa !12
  %139 = getelementptr inbounds nuw %struct.DdManager, ptr %138, i32 0, i32 53
  %140 = load i32, ptr %139, align 8, !tbaa !45
  %141 = load ptr, ptr %3, align 8, !tbaa !12
  %142 = getelementptr inbounds nuw %struct.DdManager, ptr %141, i32 0, i32 52
  %143 = load i32, ptr %142, align 4, !tbaa !43
  %144 = and i32 %143, %140
  store i32 %144, ptr %142, align 4, !tbaa !43
  store i32 0, ptr %10, align 4
  br label %145

145:                                              ; preds = %124, %41
  call void @llvm.lifetime.end.p0(i64 4, ptr %9) #4
  call void @llvm.lifetime.end.p0(i64 4, ptr %8) #4
  call void @llvm.lifetime.end.p0(i64 8, ptr %7) #4
  call void @llvm.lifetime.end.p0(i64 4, ptr %6) #4
  call void @llvm.lifetime.end.p0(i64 8, ptr %5) #4
  %146 = load i32, ptr %10, align 4
  switch i32 %146, label %148 [
    i32 0, label %147
    i32 1, label %147
  ]

147:                                              ; preds = %145, %145
  ret void

148:                                              ; preds = %145
  unreachable
}