; Function Attrs: nofree norecurse nosync nounwind memory(readwrite, inaccessiblemem: none) uwtable
define void @Cudd_DelayedDerefBdd(ptr noundef captures(none) %0, ptr noundef %1) local_unnamed_addr #1 {
  %3 = getelementptr inbounds nuw i8, ptr %0, i64 228
  %4 = load i32, ptr %3, align 4, !tbaa !25
  %5 = getelementptr inbounds nuw i8, ptr %0, i64 236
  %6 = load i32, ptr %5, align 4, !tbaa !26
  %7 = sub i32 %4, %6
  %8 = getelementptr inbounds nuw i8, ptr %0, i64 728
  %9 = load i32, ptr %8, align 8, !tbaa !27
  %10 = icmp ugt i32 %7, %9
  br i1 %10, label %11, label %12

11:                                               ; preds = %2
  store i32 %7, ptr %8, align 8, !tbaa !27
  br label %12

12:                                               ; preds = %11, %2
  %13 = ptrtoint ptr %1 to i64
  %14 = and i64 %13, -2
  %15 = inttoptr i64 %14 to ptr
  %16 = load i32, ptr %15, align 8, !tbaa !28
  %17 = icmp eq i32 %16, 2147483647
  %.phi.trans.insert = getelementptr inbounds nuw i8, ptr %15, i64 4
  %.pre = load i32, ptr %.phi.trans.insert, align 4, !tbaa !3
  %18 = icmp ugt i32 %.pre, 1
  %or.cond = select i1 %17, i1 true, i1 %18
  br i1 %or.cond, label %._crit_edge, label %21

._crit_edge:                                      ; preds = %12
  %19 = getelementptr inbounds nuw i8, ptr %15, i64 4
  %20 = add i32 %.pre, -1
  store i32 %20, ptr %19, align 4, !tbaa !3
  br label %71

21:                                               ; preds = %12
  %22 = getelementptr inbounds nuw i8, ptr %0, i64 416
  %23 = load ptr, ptr %22, align 8, !tbaa !39
  %24 = getelementptr inbounds nuw i8, ptr %0, i64 428
  %25 = load i32, ptr %24, align 4, !tbaa !40
  %26 = sext i32 %25 to i64
  %27 = getelementptr inbounds ptr, ptr %23, i64 %26
  %28 = load ptr, ptr %27, align 8, !tbaa !33
  %.not = icmp eq ptr %28, null
  br i1 %.not, label %.loopexit, label %29

29:                                               ; preds = %21
  %30 = getelementptr inbounds nuw i8, ptr %0, i64 280
  %31 = load ptr, ptr %30, align 8, !tbaa !11
  %32 = getelementptr inbounds nuw i8, ptr %0, i64 312
  %33 = getelementptr inbounds nuw i8, ptr %0, i64 152
  br label %34

34:                                               ; preds = %65, %29
  %35 = phi i32 [ %6, %29 ], [ %66, %65 ]
  %.034 = phi ptr [ %28, %29 ], [ %.135, %65 ]
  %.0 = phi i32 [ 1, %29 ], [ %.1, %65 ]
  %36 = getelementptr inbounds nuw i8, ptr %.034, i64 4
  %37 = load i32, ptr %36, align 4, !tbaa !3
  %38 = icmp eq i32 %37, 1
  br i1 %38, label %39, label %60

39:                                               ; preds = %34
  store i32 0, ptr %36, align 4, !tbaa !3
  %40 = add i32 %35, 1
  store i32 %40, ptr %5, align 4, !tbaa !26
  %41 = load ptr, ptr %32, align 8, !tbaa !30
  %42 = load i32, ptr %.034, align 8, !tbaa !28
  %43 = zext i32 %42 to i64
  %44 = getelementptr inbounds nuw i32, ptr %41, i64 %43
  %45 = load i32, ptr %44, align 4, !tbaa !31
  %46 = getelementptr inbounds nuw i8, ptr %.034, i64 16
  %47 = getelementptr inbounds nuw i8, ptr %.034, i64 24
  %48 = load ptr, ptr %47, align 8, !tbaa !32
  %49 = ptrtoint ptr %48 to i64
  %50 = and i64 %49, -2
  %51 = inttoptr i64 %50 to ptr
  %52 = add nsw i32 %.0, 1
  %53 = sext i32 %.0 to i64
  %54 = getelementptr inbounds ptr, ptr %31, i64 %53
  store ptr %51, ptr %54, align 8, !tbaa !33
  %55 = load ptr, ptr %33, align 8, !tbaa !34
  %56 = sext i32 %45 to i64
  %57 = getelementptr inbounds %struct.DdSubtable, ptr %55, i64 %56, i32 5
  %58 = load i32, ptr %57, align 8, !tbaa !35
  %59 = add i32 %58, 1
  store i32 %59, ptr %57, align 8, !tbaa !35
  br label %65

60:                                               ; preds = %34
  %61 = add i32 %37, -1
  store i32 %61, ptr %36, align 4, !tbaa !3
  %62 = add nsw i32 %.0, -1
  %63 = sext i32 %62 to i64
  %64 = getelementptr inbounds ptr, ptr %31, i64 %63
  br label %65

65:                                               ; preds = %39, %60
  %66 = phi i32 [ %40, %39 ], [ %35, %60 ]
  %.135.in = phi ptr [ %46, %39 ], [ %64, %60 ]
  %.1 = phi i32 [ %52, %39 ], [ %62, %60 ]
  %.135 = load ptr, ptr %.135.in, align 8, !tbaa !32
  %.not39 = icmp eq i32 %.1, 0
  br i1 %.not39, label %.loopexit, label %34, !llvm.loop !41

.loopexit:                                        ; preds = %65, %21
  store ptr %15, ptr %27, align 8, !tbaa !33
  %67 = add nsw i32 %25, 1
  %68 = getelementptr inbounds nuw i8, ptr %0, i64 432
  %69 = load i32, ptr %68, align 8, !tbaa !42
  %70 = and i32 %69, %67
  store i32 %70, ptr %24, align 4, !tbaa !40
  br label %71

71:                                               ; preds = %.loopexit, %._crit_edge
  ret void
}